target datalayout = "e-m:e-p270:32:32-p271:32:32-p272:64:64-i64:64-i128:128-f80:128-n8:16:32:64-S128"
target triple = "x86_64-pc-linux-gnu"

%class.symbol = type { ptr }
%"class.dt::solver" = type { %"class.euf::th_euf_solver.base", %"class.datatype::util", %class.array_util, %class.seq_util, %"struct.dt::solver::stats", %class.ptr_vector.6, %class.union_find, %class.ref_vector, %class.ptr_vector, %class.ptr_vector, %class.svector.8, %class.obj_map, %class.svector.10, %class.svector.12, %class.ptr_vector, %class.ptr_vector }
%"class.euf::th_euf_solver.base" = type <{ %"class.euf::th_solver", ptr, %class.ptr_vector, %class.svector.1, i32 }>
%"class.euf::th_solver" = type { %"class.sat::extension", %"class.euf::th_model_builder", %"class.euf::th_decompile", %"class.euf::th_internalizer", ptr }
%"class.sat::extension" = type { ptr, i8, i32, %class.symbol, ptr }
%"class.euf::th_model_builder" = type { ptr }
%"class.euf::th_decompile" = type { ptr }
%"class.euf::th_internalizer" = type { ptr, %class.ptr_vector, %class.svector }
%class.svector = type { %class.vector.0 }
%class.vector.0 = type { ptr }
%class.svector.1 = type { %class.vector.2 }
%class.vector.2 = type { ptr }
%"class.datatype::util" = type { ptr, i32, ptr }
%class.array_util = type { %class.array_recognizers, ptr }
%class.array_recognizers = type { i32 }
%class.seq_util = type { ptr, ptr, ptr, i32, [4 x i8], %"class.seq_util::str", %"class.seq_util::rex" }
%"class.seq_util::str" = type <{ ptr, ptr, i32, [4 x i8] }>
%"class.seq_util::rex" = type { ptr, ptr, i32, %class.vector.3, %class.ref_vector, %"struct.seq_util::rex::info", %"struct.seq_util::rex::info" }
%class.vector.3 = type { ptr }
%"struct.seq_util::rex::info" = type { i32, i8, i32, i32 }
%"struct.dt::solver::stats" = type { i32, i32, i32, i32, i32 }
%class.ptr_vector.6 = type { %class.vector.7 }
%class.vector.7 = type { ptr }
%class.union_find = type { ptr, ptr, %class.svector.1, %class.svector.1, %class.svector.1, %"class.union_find<dt::solver>::mk_var_trail" }
%"class.union_find<dt::solver>::mk_var_trail" = type { %class.trail, ptr }
%class.trail = type { ptr }
%class.ref_vector = type { %class.ref_vector_core }
%class.ref_vector_core = type { %class.ref_manager_wrapper, %class.ptr_vector.4 }
%class.ref_manager_wrapper = type { ptr }
%class.ptr_vector.4 = type { %class.vector.5 }
%class.vector.5 = type { ptr }
%class.svector.8 = type { %class.vector.9 }
%class.vector.9 = type { ptr }
%class.obj_map = type { %class.core_hashtable }
%class.core_hashtable = type <{ ptr, i32, i32, i32, [4 x i8] }>
%class.svector.10 = type { %class.vector.11 }
%class.vector.11 = type { ptr }
%class.svector.12 = type { %class.vector.13 }
%class.vector.13 = type { ptr }
%class.ptr_vector = type { %class.vector }
%class.vector = type { ptr }
%"class.euf::justification" = type { i32, %union.anon.43, %union.anon.44 }
%union.anon.43 = type { ptr }
%union.anon.44 = type { ptr }
%"class.euf::enode" = type { ptr, i8, i8, i8, i8, i8, i8, i8, i8, i8, i32, i32, i32, i32, i32, i32, %class.ptr_vector, ptr, ptr, ptr, ptr, %class.id_var_list, %"class.euf::justification", %"class.euf::justification", i32, i8, %class.approx_set, %class.approx_set, [0 x ptr] }
%class.id_var_list = type { i32, ptr }
%class.approx_set = type { %class.approx_set_tpl.195 }
%class.approx_set_tpl.195 = type { i64 }

; Function Attrs: mustprogress nounwind uwtable
define linkonce_odr hidden noundef i32 @_ZNK6vectorIPN3euf5enodeELb0EjE4sizeEv(ptr noundef nonnull align 8 dereferenceable(8) %0) #5 comdat align 2 {
  %2 = alloca i32, align 4
  %3 = alloca ptr, align 8
  store ptr %0, ptr %3, align 8, !tbaa !419
  %4 = load ptr, ptr %3, align 8
  %5 = getelementptr inbounds nuw %class.vector, ptr %4, i32 0, i32 0
  %6 = load ptr, ptr %5, align 8, !tbaa !446
  %7 = icmp eq ptr %6, null
  br i1 %7, label %8, label %9

8:                                                ; preds = %1
  store i32 0, ptr %2, align 4
  br label %14

9:                                                ; preds = %1
  %10 = getelementptr inbounds nuw %class.vector, ptr %4, i32 0, i32 0
  %11 = load ptr, ptr %10, align 8, !tbaa !446
  %12 = getelementptr inbounds i32, ptr %11, i64 -1
  %13 = load i32, ptr %12, align 4, !tbaa !10
  store i32 %13, ptr %2, align 4
  br label %14

14:                                               ; preds = %9, %8
  %15 = load i32, ptr %2, align 4
  ret i32 %15
}

; Function Attrs: mustprogress nounwind uwtable
define linkonce_odr hidden void @_ZN6vectorIPN3euf5enodeELb0EjE5resetEv(ptr noundef nonnull align 8 dereferenceable(8) %0) #5 comdat align 2 {
  %2 = alloca ptr, align 8
  store ptr %0, ptr %2, align 8, !tbaa !419
  %3 = load ptr, ptr %2, align 8
  %4 = getelementptr inbounds nuw %class.vector, ptr %3, i32 0, i32 0
  %5 = load ptr, ptr %4, align 8, !tbaa !446
  %6 = icmp ne ptr %5, null
  br i1 %6, label %7, label %11

7:                                                ; preds = %1
  %8 = getelementptr inbounds nuw %class.vector, ptr %3, i32 0, i32 0
  %9 = load ptr, ptr %8, align 8, !tbaa !446
  %10 = getelementptr inbounds i32, ptr %9, i64 -1
  store i32 0, ptr %10, align 4, !tbaa !10
  br label %11

11:                                               ; preds = %7, %1
  ret void
}

; Function Attrs: mustprogress nounwind uwtable
define linkonce_odr hidden void @_ZN3euf5enode7unmark2Ev(ptr noundef nonnull align 8 dereferenceable(176) %0) #5 comdat align 2 {
  %2 = alloca ptr, align 8
  store ptr %0, ptr %2, align 8, !tbaa !441
  %3 = load ptr, ptr %2, align 8
  %4 = getelementptr inbounds nuw %"class.euf::enode", ptr %3, i32 0, i32 2
  store i8 0, ptr %4, align 1, !tbaa !465
  ret void
}

; Function Attrs: mustprogress nounwind uwtable
define linkonce_odr hidden void @_ZN3euf5enode7unmark1Ev(ptr noundef nonnull align 8 dereferenceable(176) %0) #5 comdat align 2 {
  %2 = alloca ptr, align 8
  store ptr %0, ptr %2, align 8, !tbaa !441
  %3 = load ptr, ptr %2, align 8
  %4 = getelementptr inbounds nuw %"class.euf::enode", ptr %3, i32 0, i32 1
  store i8 0, ptr %4, align 8, !tbaa !458
  ret void
}

; Function Attrs: mustprogress nounwind uwtable
define linkonce_odr hidden noundef ptr @_ZN6vectorIPN3euf5enodeELb0EjE3endEv(ptr noundef nonnull align 8 dereferenceable(8) %0) #5 comdat align 2 {
  %2 = alloca ptr, align 8
  store ptr %0, ptr %2, align 8, !tbaa !419
  %3 = load ptr, ptr %2, align 8
  %4 = getelementptr inbounds nuw %class.vector, ptr %3, i32 0, i32 0
  %5 = load ptr, ptr %4, align 8, !tbaa !446
  %6 = call noundef i32 @_ZNK6vectorIPN3euf5enodeELb0EjE4sizeEv(ptr noundef nonnull align 8 dereferenceable(8) %3)
  %7 = zext i32 %6 to i64
  %8 = getelementptr inbounds nuw ptr, ptr %5, i64 %7
  ret ptr %8
}

; Function Attrs: mustprogress nounwind uwtable
define linkonce_odr hidden noundef ptr @_ZN6vectorIPN3euf5enodeELb0EjE5beginEv(ptr noundef nonnull align 8 dereferenceable(8) %0) #5 comdat align 2 {
  %2 = alloca ptr, align 8
  store ptr %0, ptr %2, align 8, !tbaa !419
  %3 = load ptr, ptr %2, align 8
  %4 = getelementptr inbounds nuw %class.vector, ptr %3, i32 0, i32 0
  %5 = load ptr, ptr %4, align 8, !tbaa !446
  ret ptr %5
}

; Function Attrs: mustprogress uwtable
define hidden void @_ZN2dt6solver10clear_markEv(ptr noundef nonnull align 8 dereferenceable(472) %0) #4 align 2 {
  %2 = alloca ptr, align 8
  %3 = alloca ptr, align 8
  %4 = alloca ptr, align 8
  %5 = alloca ptr, align 8
  %6 = alloca ptr, align 8
  %7 = alloca ptr, align 8
  %8 = alloca ptr, align 8
  %9 = alloca ptr, align 8
  %10 = alloca ptr, align 8
  store ptr %0, ptr %2, align 8, !tbaa !3
  %11 = load ptr, ptr %2, align 8
  call void @llvm.lifetime.start.p0(i64 8, ptr %3) #3
  %12 = getelementptr inbounds nuw %"class.dt::solver", ptr %11, i32 0, i32 8
  store ptr %12, ptr %3, align 8, !tbaa !409
  call void @llvm.lifetime.start.p0(i64 8, ptr %4) #3
  %13 = load ptr, ptr %3, align 8, !tbaa !409
  %14 = call noundef ptr @_ZN6vectorIPN3euf5enodeELb0EjE5beginEv(ptr noundef nonnull align 8 dereferenceable(8) %13)
  store ptr %14, ptr %4, align 8, !tbaa !444
  call void @llvm.lifetime.start.p0(i64 8, ptr %5) #3
  %15 = load ptr, ptr %3, align 8, !tbaa !409
  %16 = call noundef ptr @_ZN6vectorIPN3euf5enodeELb0EjE3endEv(ptr noundef nonnull align 8 dereferenceable(8) %15)
  store ptr %16, ptr %5, align 8, !tbaa !444
  br label %17

17:                                               ; preds = %26, %1
  %18 = load ptr, ptr %4, align 8, !tbaa !444
  %19 = load ptr, ptr %5, align 8, !tbaa !444
  %20 = icmp ne ptr %18, %19
  br i1 %20, label %22, label %21

21:                                               ; preds = %17
  call void @llvm.lifetime.end.p0(i64 8, ptr %5) #3
  call void @llvm.lifetime.end.p0(i64 8, ptr %4) #3
  call void @llvm.lifetime.end.p0(i64 8, ptr %3) #3
  br label %29

22:                                               ; preds = %17
  call void @llvm.lifetime.start.p0(i64 8, ptr %6) #3
  %23 = load ptr, ptr %4, align 8, !tbaa !444
  %24 = load ptr, ptr %23, align 8, !tbaa !441
  store ptr %24, ptr %6, align 8, !tbaa !441
  %25 = load ptr, ptr %6, align 8, !tbaa !441
  call void @_ZN3euf5enode7unmark1Ev(ptr noundef nonnull align 8 dereferenceable(176) %25)
  call void @llvm.lifetime.end.p0(i64 8, ptr %6) #3
  br label %26

26:                                               ; preds = %22
  %27 = load ptr, ptr %4, align 8, !tbaa !444
  %28 = getelementptr inbounds nuw ptr, ptr %27, i32 1
  store ptr %28, ptr %4, align 8, !tbaa !444
  br label %17

29:                                               ; preds = %21
  call void @llvm.lifetime.start.p0(i64 8, ptr %7) #3
  %30 = getelementptr inbounds nuw %"class.dt::solver", ptr %11, i32 0, i32 9
  store ptr %30, ptr %7, align 8, !tbaa !409
  call void @llvm.lifetime.start.p0(i64 8, ptr %8) #3
  %31 = load ptr, ptr %7, align 8, !tbaa !409
  %32 = call noundef ptr @_ZN6vectorIPN3euf5enodeELb0EjE5beginEv(ptr noundef nonnull align 8 dereferenceable(8) %31)
  store ptr %32, ptr %8, align 8, !tbaa !444
  call void @llvm.lifetime.start.p0(i64 8, ptr %9) #3
  %33 = load ptr, ptr %7, align 8, !tbaa !409
  %34 = call noundef ptr @_ZN6vectorIPN3euf5enodeELb0EjE3endEv(ptr noundef nonnull align 8 dereferenceable(8) %33)
  store ptr %34, ptr %9, align 8, !tbaa !444
  br label %35

35:                                               ; preds = %44, %29
  %36 = load ptr, ptr %8, align 8, !tbaa !444
  %37 = load ptr, ptr %9, align 8, !tbaa !444
  %38 = icmp ne ptr %36, %37
  br i1 %38, label %40, label %39

39:                                               ; preds = %35
  call void @llvm.lifetime.end.p0(i64 8, ptr %9) #3
  call void @llvm.lifetime.end.p0(i64 8, ptr %8) #3
  call void @llvm.lifetime.end.p0(i64 8, ptr %7) #3
  br label %47

40:                                               ; preds = %35
  call void @llvm.lifetime.start.p0(i64 8, ptr %10) #3
  %41 = load ptr, ptr %8, align 8, !tbaa !444
  %42 = load ptr, ptr %41, align 8, !tbaa !441
  store ptr %42, ptr %10, align 8, !tbaa !441
  %43 = load ptr, ptr %10, align 8, !tbaa !441
  call void @_ZN3euf5enode7unmark2Ev(ptr noundef nonnull align 8 dereferenceable(176) %43)
  call void @llvm.lifetime.end.p0(i64 8, ptr %10) #3
  br label %44

44:                                               ; preds = %40
  %45 = load ptr, ptr %8, align 8, !tbaa !444
  %46 = getelementptr inbounds nuw ptr, ptr %45, i32 1
  store ptr %46, ptr %8, align 8, !tbaa !444
  br label %35

47:                                               ; preds = %39
  %48 = getelementptr inbounds nuw %"class.dt::solver", ptr %11, i32 0, i32 8
  call void @_ZN6vectorIPN3euf5enodeELb0EjE5resetEv(ptr noundef nonnull align 8 dereferenceable(8) %48)
  %49 = getelementptr inbounds nuw %"class.dt::solver", ptr %11, i32 0, i32 9
  call void @_ZN6vectorIPN3euf5enodeELb0EjE5resetEv(ptr noundef nonnull align 8 dereferenceable(8) %49)
  ret void
}