; Function Attrs: mustprogress nofree norecurse nosync nounwind memory(readwrite, inaccessiblemem: none) uwtable
define hidden void @_ZN2dt6solver10clear_markEv(ptr noundef nonnull readonly align 8 captures(none) dereferenceable(472) %0) local_unnamed_addr #11 align 2 {
  %2 = getelementptr inbounds nuw i8, ptr %0, i64 392
  %3 = load ptr, ptr %2, align 8, !tbaa !432
  %4 = icmp eq ptr %3, null
  br i1 %4, label %._crit_edge, label %_ZN6vectorIPN3euf5enodeELb0EjE3endEv.exit

_ZN6vectorIPN3euf5enodeELb0EjE3endEv.exit:        ; preds = %1
  %5 = getelementptr inbounds i8, ptr %3, i64 -4
  %6 = load i32, ptr %5, align 4, !tbaa !387
  %7 = zext i32 %6 to i64
  %8 = getelementptr inbounds nuw ptr, ptr %3, i64 %7
  %.not21 = icmp eq i32 %6, 0
  br i1 %.not21, label %._crit_edge, label %.lr.ph

._crit_edge:                                      ; preds = %.lr.ph, %1, %_ZN6vectorIPN3euf5enodeELb0EjE3endEv.exit
  %9 = getelementptr inbounds nuw i8, ptr %0, i64 400
  %10 = load ptr, ptr %9, align 8, !tbaa !432
  %11 = icmp eq ptr %10, null
  br i1 %11, label %._crit_edge26, label %_ZN6vectorIPN3euf5enodeELb0EjE3endEv.exit18

_ZN6vectorIPN3euf5enodeELb0EjE3endEv.exit18:      ; preds = %._crit_edge
  %12 = getelementptr inbounds i8, ptr %10, i64 -4
  %13 = load i32, ptr %12, align 4, !tbaa !387
  %14 = zext i32 %13 to i64
  %15 = getelementptr inbounds nuw ptr, ptr %10, i64 %14
  %.not1623 = icmp eq i32 %13, 0
  br i1 %.not1623, label %._crit_edge26, label %.lr.ph25

.lr.ph:                                           ; preds = %_ZN6vectorIPN3euf5enodeELb0EjE3endEv.exit, %.lr.ph
  %.022 = phi ptr [ %18, %.lr.ph ], [ %3, %_ZN6vectorIPN3euf5enodeELb0EjE3endEv.exit ]
  %16 = load ptr, ptr %.022, align 8, !tbaa !451
  %17 = getelementptr inbounds nuw i8, ptr %16, i64 8
  store i8 0, ptr %17, align 8, !tbaa !462
  %18 = getelementptr inbounds nuw i8, ptr %.022, i64 8
  %.not = icmp eq ptr %18, %8
  br i1 %.not, label %._crit_edge, label %.lr.ph

._crit_edge26:                                    ; preds = %.lr.ph25, %._crit_edge, %_ZN6vectorIPN3euf5enodeELb0EjE3endEv.exit18
  br i1 %4, label %_ZN6vectorIPN3euf5enodeELb0EjE5resetEv.exit, label %19

19:                                               ; preds = %._crit_edge26
  %20 = getelementptr inbounds i8, ptr %3, i64 -4
  store i32 0, ptr %20, align 4, !tbaa !387
  br label %_ZN6vectorIPN3euf5enodeELb0EjE5resetEv.exit

_ZN6vectorIPN3euf5enodeELb0EjE5resetEv.exit:      ; preds = %._crit_edge26, %19
  br i1 %11, label %_ZN6vectorIPN3euf5enodeELb0EjE5resetEv.exit20, label %21

21:                                               ; preds = %_ZN6vectorIPN3euf5enodeELb0EjE5resetEv.exit
  %22 = getelementptr inbounds i8, ptr %10, i64 -4
  store i32 0, ptr %22, align 4, !tbaa !387
  br label %_ZN6vectorIPN3euf5enodeELb0EjE5resetEv.exit20

_ZN6vectorIPN3euf5enodeELb0EjE5resetEv.exit20:    ; preds = %_ZN6vectorIPN3euf5enodeELb0EjE5resetEv.exit, %21
  ret void

.lr.ph25:                                         ; preds = %_ZN6vectorIPN3euf5enodeELb0EjE3endEv.exit18, %.lr.ph25
  %.01524 = phi ptr [ %25, %.lr.ph25 ], [ %10, %_ZN6vectorIPN3euf5enodeELb0EjE3endEv.exit18 ]
  %23 = load ptr, ptr %.01524, align 8, !tbaa !451
  %24 = getelementptr inbounds nuw i8, ptr %23, i64 9
  store i8 0, ptr %24, align 1, !tbaa !468
  %25 = getelementptr inbounds nuw i8, ptr %.01524, i64 8
  %.not16 = icmp eq ptr %25, %15
  br i1 %.not16, label %._crit_edge26, label %.lr.ph25
}